; Function Attrs: nounwind uwtable
define dso_local i32 @list_delete_all(ptr noundef %0, ptr noundef readonly captures(none) %1, ptr noundef %2) #0 {
  %4 = getelementptr inbounds nuw i8, ptr %0, i64 40
  %5 = tail call i32 @pthread_rwlock_wrlock(ptr noundef nonnull %4) #9
  %.not = icmp eq i32 %5, 0
  br i1 %.not, label %8, label %6

6:                                                ; preds = %3
  %7 = tail call ptr @__errno_location() #10
  store i32 %5, ptr %7, align 4
  tail call void (ptr, ...) @fatal_abort(ptr noundef nonnull @.str.2, ptr noundef nonnull @__func__.list_delete_all) #11
  unreachable

8:                                                ; preds = %3
  %9 = getelementptr inbounds nuw i8, ptr %0, i64 8
  %10 = load ptr, ptr %9, align 8
  %.not2532 = icmp eq ptr %10, null
  br i1 %.not2532, label %._crit_edge, label %.lr.ph

.lr.ph:                                           ; preds = %8
  %11 = getelementptr inbounds nuw i8, ptr %0, i64 16
  %12 = getelementptr inbounds nuw i8, ptr %0, i64 4
  %13 = getelementptr inbounds nuw i8, ptr %0, i64 24
  %14 = getelementptr inbounds nuw i8, ptr %0, i64 96
  %15 = getelementptr inbounds nuw i8, ptr %0, i64 32
  br label %16

16:                                               ; preds = %.lr.ph, %_list_node_destroy.exit.thread
  %17 = phi ptr [ %10, %.lr.ph ], [ %.pr, %_list_node_destroy.exit.thread ]
  %.034 = phi ptr [ %9, %.lr.ph ], [ %.1.ph, %_list_node_destroy.exit.thread ]
  %.01833 = phi i32 [ 0, %.lr.ph ], [ %.119.ph, %_list_node_destroy.exit.thread ]
  %18 = load ptr, ptr %17, align 8
  %19 = tail call i32 %1(ptr noundef %18, ptr noundef %2) #9
  %.not27 = icmp eq i32 %19, 0
  %20 = load ptr, ptr %.034, align 8
  br i1 %.not27, label %49, label %21

21:                                               ; preds = %16
  %.not.i = icmp eq ptr %20, null
  br i1 %.not.i, label %._crit_edge, label %22

22:                                               ; preds = %21
  %23 = load ptr, ptr %20, align 8
  %24 = getelementptr inbounds nuw i8, ptr %20, i64 8
  %25 = load ptr, ptr %24, align 8
  store ptr %25, ptr %.034, align 8
  %.not28.i = icmp eq ptr %25, null
  br i1 %.not28.i, label %26, label %27

26:                                               ; preds = %22
  store ptr %.034, ptr %11, align 8
  br label %27

27:                                               ; preds = %26, %22
  %28 = load i32, ptr %12, align 4
  %29 = add nsw i32 %28, -1
  store i32 %29, ptr %12, align 4
  %.030.i = load ptr, ptr %13, align 8
  %.not2931.i = icmp eq ptr %.030.i, null
  br i1 %.not2931.i, label %_list_node_destroy.exit, label %.lr.ph.i

.lr.ph.i:                                         ; preds = %27, %41
  %.032.i = phi ptr [ %.0.i, %41 ], [ %.030.i, %27 ]
  %30 = getelementptr inbounds nuw i8, ptr %.032.i, i64 16
  %31 = load ptr, ptr %30, align 8
  %32 = icmp eq ptr %31, %20
  br i1 %32, label %33, label %36

33:                                               ; preds = %.lr.ph.i
  %34 = load ptr, ptr %24, align 8
  store ptr %34, ptr %30, align 8
  %35 = getelementptr inbounds nuw i8, ptr %.032.i, i64 24
  store ptr %.034, ptr %35, align 8
  br label %41

36:                                               ; preds = %.lr.ph.i
  %37 = getelementptr inbounds nuw i8, ptr %.032.i, i64 24
  %38 = load ptr, ptr %37, align 8
  %39 = icmp eq ptr %38, %24
  br i1 %39, label %40, label %41

40:                                               ; preds = %36
  store ptr %.034, ptr %37, align 8
  br label %41

41:                                               ; preds = %40, %36, %33
  %42 = getelementptr inbounds nuw i8, ptr %.032.i, i64 32
  %.0.i = load ptr, ptr %42, align 8
  %.not29.i = icmp eq ptr %.0.i, null
  br i1 %.not29.i, label %_list_node_destroy.exit, label %.lr.ph.i, !llvm.loop !17

_list_node_destroy.exit:                          ; preds = %41, %27
  %43 = load ptr, ptr %14, align 8
  store ptr %43, ptr %24, align 8
  store ptr %20, ptr %14, align 8
  %.not28 = icmp eq ptr %23, null
  br i1 %.not28, label %_list_node_destroy.exit.thread, label %44

44:                                               ; preds = %_list_node_destroy.exit
  %45 = load ptr, ptr %15, align 8
  %.not29 = icmp eq ptr %45, null
  br i1 %.not29, label %47, label %46

46:                                               ; preds = %44
  tail call void %45(ptr noundef nonnull %23) #9
  br label %47

47:                                               ; preds = %46, %44
  %48 = add nsw i32 %.01833, 1
  br label %_list_node_destroy.exit.thread

49:                                               ; preds = %16
  %50 = getelementptr inbounds nuw i8, ptr %20, i64 8
  br label %_list_node_destroy.exit.thread

_list_node_destroy.exit.thread:                   ; preds = %_list_node_destroy.exit, %47, %49
  %.119.ph = phi i32 [ %.01833, %49 ], [ %.01833, %_list_node_destroy.exit ], [ %48, %47 ]
  %.1.ph = phi ptr [ %50, %49 ], [ %.034, %_list_node_destroy.exit ], [ %.034, %47 ]
  %.pr = load ptr, ptr %.1.ph, align 8
  %.not25 = icmp eq ptr %.pr, null
  br i1 %.not25, label %._crit_edge, label %16, !llvm.loop !21

._crit_edge:                                      ; preds = %21, %_list_node_destroy.exit.thread, %8
  %.018.lcssa = phi i32 [ 0, %8 ], [ %.01833, %21 ], [ %.119.ph, %_list_node_destroy.exit.thread ]
  %51 = tail call i32 @pthread_rwlock_unlock(ptr noundef nonnull %4) #9
  %.not26 = icmp eq i32 %51, 0
  br i1 %.not26, label %54, label %52

52:                                               ; preds = %._crit_edge
  %53 = tail call ptr @__errno_location() #10
  store i32 %51, ptr %53, align 4
  tail call void (ptr, ...) @fatal_abort(ptr noundef nonnull @.str.3, ptr noundef nonnull @__func__.list_delete_all) #11
  unreachable

54:                                               ; preds = %._crit_edge
  ret i32 %.018.lcssa
}